target datalayout = "e-m:e-p270:32:32-p271:32:32-p272:64:64-i64:64-i128:128-f80:128-n8:16:32:64-S128"
target triple = "x86_64-pc-linux-gnu"

@_ZL16g_trimmer_thread = internal global ptr null, align 8

; Function Attrs: mustprogress nounwind uwtable
define hidden void @_ZN17NativeHeapTrimmer20resume_periodic_trimEPKc(ptr noundef %0) #1 align 2 {
  %2 = alloca ptr, align 8
  store ptr %0, ptr %2, align 8
  %3 = load ptr, ptr @_ZL16g_trimmer_thread, align 8
  %4 = icmp ne ptr %3, null
  br i1 %4, label %5, label %8

5:                                                ; preds = %1
  %6 = load ptr, ptr @_ZL16g_trimmer_thread, align 8
  %7 = load ptr, ptr %2, align 8
  call void @_ZN23NativeHeapTrimmerThread6resumeEPKc(ptr noundef nonnull align 8 dereferenceable(944) %6, ptr noundef %7)
  br label %8

8:                                                ; preds = %5, %1
  ret void
}