; Function Attrs: mustprogress nounwind uwtable
define hidden void @_ZN17NativeHeapTrimmer20resume_periodic_trimEPKc(ptr noundef %0) local_unnamed_addr #0 align 2 {
  %2 = load ptr, ptr @_ZL16g_trimmer_thread, align 8
  %.not = icmp eq ptr %2, null
  br i1 %.not, label %4, label %3

3:                                                ; preds = %1
  tail call void @_ZN23NativeHeapTrimmerThread6resumeEPKc(ptr noundef nonnull align 8 dereferenceable(944) %2, ptr noundef %0)
  br label %4

4:                                                ; preds = %3, %1
  ret void
}